; Function Attrs: nounwind uwtable
define internal i32 @framecrc_write_header(ptr noundef %0) #0 {
  %2 = getelementptr inbounds nuw i8, ptr %0, i64 44
  %3 = load i32, ptr %2, align 4, !tbaa !4
  %.not15 = icmp eq i32 %3, 0
  br i1 %.not15, label %._crit_edge, label %.lr.ph

.lr.ph:                                           ; preds = %1
  %4 = getelementptr inbounds nuw i8, ptr %0, i64 48
  %5 = getelementptr inbounds nuw i8, ptr %0, i64 32
  br label %6

6:                                                ; preds = %.lr.ph, %23
  %7 = phi i32 [ %3, %.lr.ph ], [ %24, %23 ]
  %indvars.iv = phi i64 [ 0, %.lr.ph ], [ %indvars.iv.next, %23 ]
  %8 = load ptr, ptr %4, align 8, !tbaa !24
  %9 = getelementptr inbounds nuw ptr, ptr %8, i64 %indvars.iv
  %10 = load ptr, ptr %9, align 8, !tbaa !25
  %11 = getelementptr inbounds nuw i8, ptr %10, i64 16
  %12 = load ptr, ptr %11, align 8, !tbaa !27
  %13 = getelementptr inbounds nuw i8, ptr %12, i64 16
  %14 = load ptr, ptr %13, align 8, !tbaa !34
  %.not = icmp eq ptr %14, null
  br i1 %.not, label %23, label %15

15:                                               ; preds = %6
  %16 = getelementptr inbounds nuw i8, ptr %12, i64 24
  %17 = load i32, ptr %16, align 8, !tbaa !37
  %18 = sext i32 %17 to i64
  %19 = tail call i32 @av_adler32_update(i32 noundef 0, ptr noundef nonnull %14, i64 noundef %18) #6
  %20 = load ptr, ptr %5, align 8, !tbaa !38
  %21 = trunc nuw nsw i64 %indvars.iv to i32
  %22 = tail call i32 (ptr, ptr, ...) @avio_printf(ptr noundef %20, ptr noundef nonnull @.str.2, i32 noundef %21, i32 noundef %17, i32 noundef %19) #7
  %.pre = load i32, ptr %2, align 4, !tbaa !4
  br label %23

23:                                               ; preds = %15, %6
  %24 = phi i32 [ %.pre, %15 ], [ %7, %6 ]
  %indvars.iv.next = add nuw nsw i64 %indvars.iv, 1
  %25 = zext i32 %24 to i64
  %26 = icmp samesign ult i64 %indvars.iv.next, %25
  br i1 %26, label %6, label %._crit_edge, !llvm.loop !39

._crit_edge:                                      ; preds = %23, %1
  %27 = tail call i32 @ff_framehash_write_header(ptr noundef nonnull %0) #7
  ret i32 %27
}